target datalayout = "e-m:e-p270:32:32-p271:32:32-p272:64:64-i64:64-i128:128-f80:128-n8:16:32:64-S128"
target triple = "x86_64-pc-linux-gnu"

%struct.Vec_Ptr_t_ = type { i32, i32, ptr }
%struct.Vec_Int_t_ = type { i32, i32, ptr }
%struct.Abc_Obj_t_ = type { ptr, ptr, i32, i32, %struct.Vec_Int_t_, %struct.Vec_Int_t_, %union.anon, %union.anon.0 }
%union.anon = type { ptr }
%union.anon.0 = type { ptr }

; Function Attrs: inlinehint nounwind uwtable
define internal i32 @Abc_ObjFaninC1(ptr noundef %0) #2 {
  %2 = alloca ptr, align 8
  store ptr %0, ptr %2, align 8, !tbaa !32
  %3 = load ptr, ptr %2, align 8, !tbaa !32
  %4 = getelementptr inbounds nuw %struct.Abc_Obj_t_, ptr %3, i32 0, i32 3
  %5 = load i32, ptr %4, align 4
  %6 = lshr i32 %5, 11
  %7 = and i32 %6, 1
  ret i32 %7
}

; Function Attrs: inlinehint nounwind uwtable
define internal i32 @Abc_ObjFaninC0(ptr noundef %0) #2 {
  %2 = alloca ptr, align 8
  store ptr %0, ptr %2, align 8, !tbaa !32
  %3 = load ptr, ptr %2, align 8, !tbaa !32
  %4 = getelementptr inbounds nuw %struct.Abc_Obj_t_, ptr %3, i32 0, i32 3
  %5 = load i32, ptr %4, align 4
  %6 = lshr i32 %5, 10
  %7 = and i32 %6, 1
  ret i32 %7
}

; Function Attrs: inlinehint nounwind uwtable
define internal i32 @Abc_ObjFaninId1(ptr noundef %0) #2 {
  %2 = alloca ptr, align 8
  store ptr %0, ptr %2, align 8, !tbaa !32
  %3 = load ptr, ptr %2, align 8, !tbaa !32
  %4 = getelementptr inbounds nuw %struct.Abc_Obj_t_, ptr %3, i32 0, i32 4
  %5 = getelementptr inbounds nuw %struct.Vec_Int_t_, ptr %4, i32 0, i32 2
  %6 = load ptr, ptr %5, align 8, !tbaa !69
  %7 = getelementptr inbounds i32, ptr %6, i64 1
  %8 = load i32, ptr %7, align 4, !tbaa !3
  ret i32 %8
}

; Function Attrs: inlinehint nounwind uwtable
define internal i32 @Abc_ObjFaninId0(ptr noundef %0) #2 {
  %2 = alloca ptr, align 8
  store ptr %0, ptr %2, align 8, !tbaa !32
  %3 = load ptr, ptr %2, align 8, !tbaa !32
  %4 = getelementptr inbounds nuw %struct.Abc_Obj_t_, ptr %3, i32 0, i32 4
  %5 = getelementptr inbounds nuw %struct.Vec_Int_t_, ptr %4, i32 0, i32 2
  %6 = load ptr, ptr %5, align 8, !tbaa !69
  %7 = getelementptr inbounds i32, ptr %6, i64 0
  %8 = load i32, ptr %7, align 4, !tbaa !3
  ret i32 %8
}

; Function Attrs: inlinehint nounwind uwtable
define internal ptr @Vec_PtrEntry(ptr noundef %0, i32 noundef %1) #2 {
  %3 = alloca ptr, align 8
  %4 = alloca i32, align 4
  store ptr %0, ptr %3, align 8, !tbaa !7
  store i32 %1, ptr %4, align 4, !tbaa !3
  %5 = load ptr, ptr %3, align 8, !tbaa !7
  %6 = getelementptr inbounds nuw %struct.Vec_Ptr_t_, ptr %5, i32 0, i32 2
  %7 = load ptr, ptr %6, align 8, !tbaa !10
  %8 = load i32, ptr %4, align 4, !tbaa !3
  %9 = sext i32 %8 to i64
  %10 = getelementptr inbounds ptr, ptr %7, i64 %9
  %11 = load ptr, ptr %10, align 8, !tbaa !12
  ret ptr %11
}

; Function Attrs: nounwind uwtable
define void @Sim_UtilSimulateNodeOne(ptr noundef %0, ptr noundef %1, i32 noundef %2, i32 noundef %3) #0 {
  %5 = alloca ptr, align 8
  %6 = alloca ptr, align 8
  %7 = alloca i32, align 4
  %8 = alloca i32, align 4
  %9 = alloca ptr, align 8
  %10 = alloca ptr, align 8
  %11 = alloca ptr, align 8
  %12 = alloca i32, align 4
  %13 = alloca i32, align 4
  %14 = alloca i32, align 4
  store ptr %0, ptr %5, align 8, !tbaa !32
  store ptr %1, ptr %6, align 8, !tbaa !7
  store i32 %2, ptr %7, align 4, !tbaa !3
  store i32 %3, ptr %8, align 4, !tbaa !3
  call void @llvm.lifetime.start.p0(i64 8, ptr %9) #8
  call void @llvm.lifetime.start.p0(i64 8, ptr %10) #8
  call void @llvm.lifetime.start.p0(i64 8, ptr %11) #8
  call void @llvm.lifetime.start.p0(i64 4, ptr %12) #8
  call void @llvm.lifetime.start.p0(i64 4, ptr %13) #8
  call void @llvm.lifetime.start.p0(i64 4, ptr %14) #8
  %15 = load ptr, ptr %6, align 8, !tbaa !7
  %16 = load ptr, ptr %5, align 8, !tbaa !32
  %17 = getelementptr inbounds nuw %struct.Abc_Obj_t_, ptr %16, i32 0, i32 2
  %18 = load i32, ptr %17, align 8, !tbaa !40
  %19 = call ptr @Vec_PtrEntry(ptr noundef %15, i32 noundef %18)
  store ptr %19, ptr %9, align 8, !tbaa !17
  %20 = load ptr, ptr %6, align 8, !tbaa !7
  %21 = load ptr, ptr %5, align 8, !tbaa !32
  %22 = call i32 @Abc_ObjFaninId0(ptr noundef %21)
  %23 = call ptr @Vec_PtrEntry(ptr noundef %20, i32 noundef %22)
  store ptr %23, ptr %10, align 8, !tbaa !17
  %24 = load ptr, ptr %6, align 8, !tbaa !7
  %25 = load ptr, ptr %5, align 8, !tbaa !32
  %26 = call i32 @Abc_ObjFaninId1(ptr noundef %25)
  %27 = call ptr @Vec_PtrEntry(ptr noundef %24, i32 noundef %26)
  store ptr %27, ptr %11, align 8, !tbaa !17
  %28 = load i32, ptr %8, align 4, !tbaa !3
  %29 = load ptr, ptr %9, align 8, !tbaa !17
  %30 = sext i32 %28 to i64
  %31 = getelementptr inbounds i32, ptr %29, i64 %30
  store ptr %31, ptr %9, align 8, !tbaa !17
  %32 = load i32, ptr %8, align 4, !tbaa !3
  %33 = load ptr, ptr %10, align 8, !tbaa !17
  %34 = sext i32 %32 to i64
  %35 = getelementptr inbounds i32, ptr %33, i64 %34
  store ptr %35, ptr %10, align 8, !tbaa !17
  %36 = load i32, ptr %8, align 4, !tbaa !3
  %37 = load ptr, ptr %11, align 8, !tbaa !17
  %38 = sext i32 %36 to i64
  %39 = getelementptr inbounds i32, ptr %37, i64 %38
  store ptr %39, ptr %11, align 8, !tbaa !17
  %40 = load ptr, ptr %5, align 8, !tbaa !32
  %41 = call i32 @Abc_ObjFaninC0(ptr noundef %40)
  store i32 %41, ptr %13, align 4, !tbaa !3
  %42 = load ptr, ptr %5, align 8, !tbaa !32
  %43 = call i32 @Abc_ObjFaninC1(ptr noundef %42)
  store i32 %43, ptr %14, align 4, !tbaa !3
  %44 = load i32, ptr %13, align 4, !tbaa !3
  %45 = icmp ne i32 %44, 0
  br i1 %45, label %46, label %76

46:                                               ; preds = %4
  %47 = load i32, ptr %14, align 4, !tbaa !3
  %48 = icmp ne i32 %47, 0
  br i1 %48, label %49, label %76

49:                                               ; preds = %46
  store i32 0, ptr %12, align 4, !tbaa !3
  br label %50

50:                                               ; preds = %72, %49
  %51 = load i32, ptr %12, align 4, !tbaa !3
  %52 = load i32, ptr %7, align 4, !tbaa !3
  %53 = icmp slt i32 %51, %52
  br i1 %53, label %54, label %75

54:                                               ; preds = %50
  %55 = load ptr, ptr %10, align 8, !tbaa !17
  %56 = load i32, ptr %12, align 4, !tbaa !3
  %57 = sext i32 %56 to i64
  %58 = getelementptr inbounds i32, ptr %55, i64 %57
  %59 = load i32, ptr %58, align 4, !tbaa !3
  %60 = xor i32 %59, -1
  %61 = load ptr, ptr %11, align 8, !tbaa !17
  %62 = load i32, ptr %12, align 4, !tbaa !3
  %63 = sext i32 %62 to i64
  %64 = getelementptr inbounds i32, ptr %61, i64 %63
  %65 = load i32, ptr %64, align 4, !tbaa !3
  %66 = xor i32 %65, -1
  %67 = and i32 %60, %66
  %68 = load ptr, ptr %9, align 8, !tbaa !17
  %69 = load i32, ptr %12, align 4, !tbaa !3
  %70 = sext i32 %69 to i64
  %71 = getelementptr inbounds i32, ptr %68, i64 %70
  store i32 %67, ptr %71, align 4, !tbaa !3
  br label %72

72:                                               ; preds = %54
  %73 = load i32, ptr %12, align 4, !tbaa !3
  %74 = add nsw i32 %73, 1
  store i32 %74, ptr %12, align 4, !tbaa !3
  br label %50, !llvm.loop !70

75:                                               ; preds = %50
  br label %167

76:                                               ; preds = %46, %4
  %77 = load i32, ptr %13, align 4, !tbaa !3
  %78 = icmp ne i32 %77, 0
  br i1 %78, label %79, label %108

79:                                               ; preds = %76
  %80 = load i32, ptr %14, align 4, !tbaa !3
  %81 = icmp ne i32 %80, 0
  br i1 %81, label %108, label %82

82:                                               ; preds = %79
  store i32 0, ptr %12, align 4, !tbaa !3
  br label %83

83:                                               ; preds = %104, %82
  %84 = load i32, ptr %12, align 4, !tbaa !3
  %85 = load i32, ptr %7, align 4, !tbaa !3
  %86 = icmp slt i32 %84, %85
  br i1 %86, label %87, label %107

87:                                               ; preds = %83
  %88 = load ptr, ptr %10, align 8, !tbaa !17
  %89 = load i32, ptr %12, align 4, !tbaa !3
  %90 = sext i32 %89 to i64
  %91 = getelementptr inbounds i32, ptr %88, i64 %90
  %92 = load i32, ptr %91, align 4, !tbaa !3
  %93 = xor i32 %92, -1
  %94 = load ptr, ptr %11, align 8, !tbaa !17
  %95 = load i32, ptr %12, align 4, !tbaa !3
  %96 = sext i32 %95 to i64
  %97 = getelementptr inbounds i32, ptr %94, i64 %96
  %98 = load i32, ptr %97, align 4, !tbaa !3
  %99 = and i32 %93, %98
  %100 = load ptr, ptr %9, align 8, !tbaa !17
  %101 = load i32, ptr %12, align 4, !tbaa !3
  %102 = sext i32 %101 to i64
  %103 = getelementptr inbounds i32, ptr %100, i64 %102
  store i32 %99, ptr %103, align 4, !tbaa !3
  br label %104

104:                                              ; preds = %87
  %105 = load i32, ptr %12, align 4, !tbaa !3
  %106 = add nsw i32 %105, 1
  store i32 %106, ptr %12, align 4, !tbaa !3
  br label %83, !llvm.loop !71

107:                                              ; preds = %83
  br label %166

108:                                              ; preds = %79, %76
  %109 = load i32, ptr %13, align 4, !tbaa !3
  %110 = icmp ne i32 %109, 0
  br i1 %110, label %140, label %111

111:                                              ; preds = %108
  %112 = load i32, ptr %14, align 4, !tbaa !3
  %113 = icmp ne i32 %112, 0
  br i1 %113, label %114, label %140

114:                                              ; preds = %111
  store i32 0, ptr %12, align 4, !tbaa !3
  br label %115

115:                                              ; preds = %136, %114
  %116 = load i32, ptr %12, align 4, !tbaa !3
  %117 = load i32, ptr %7, align 4, !tbaa !3
  %118 = icmp slt i32 %116, %117
  br i1 %118, label %119, label %139

119:                                              ; preds = %115
  %120 = load ptr, ptr %10, align 8, !tbaa !17
  %121 = load i32, ptr %12, align 4, !tbaa !3
  %122 = sext i32 %121 to i64
  %123 = getelementptr inbounds i32, ptr %120, i64 %122
  %124 = load i32, ptr %123, align 4, !tbaa !3
  %125 = load ptr, ptr %11, align 8, !tbaa !17
  %126 = load i32, ptr %12, align 4, !tbaa !3
  %127 = sext i32 %126 to i64
  %128 = getelementptr inbounds i32, ptr %125, i64 %127
  %129 = load i32, ptr %128, align 4, !tbaa !3
  %130 = xor i32 %129, -1
  %131 = and i32 %124, %130
  %132 = load ptr, ptr %9, align 8, !tbaa !17
  %133 = load i32, ptr %12, align 4, !tbaa !3
  %134 = sext i32 %133 to i64
  %135 = getelementptr inbounds i32, ptr %132, i64 %134
  store i32 %131, ptr %135, align 4, !tbaa !3
  br label %136

136:                                              ; preds = %119
  %137 = load i32, ptr %12, align 4, !tbaa !3
  %138 = add nsw i32 %137, 1
  store i32 %138, ptr %12, align 4, !tbaa !3
  br label %115, !llvm.loop !72

139:                                              ; preds = %115
  br label %165

140:                                              ; preds = %111, %108
  store i32 0, ptr %12, align 4, !tbaa !3
  br label %141

141:                                              ; preds = %161, %140
  %142 = load i32, ptr %12, align 4, !tbaa !3
  %143 = load i32, ptr %7, align 4, !tbaa !3
  %144 = icmp slt i32 %142, %143
  br i1 %144, label %145, label %164

145:                                              ; preds = %141
  %146 = load ptr, ptr %10, align 8, !tbaa !17
  %147 = load i32, ptr %12, align 4, !tbaa !3
  %148 = sext i32 %147 to i64
  %149 = getelementptr inbounds i32, ptr %146, i64 %148
  %150 = load i32, ptr %149, align 4, !tbaa !3
  %151 = load ptr, ptr %11, align 8, !tbaa !17
  %152 = load i32, ptr %12, align 4, !tbaa !3
  %153 = sext i32 %152 to i64
  %154 = getelementptr inbounds i32, ptr %151, i64 %153
  %155 = load i32, ptr %154, align 4, !tbaa !3
  %156 = and i32 %150, %155
  %157 = load ptr, ptr %9, align 8, !tbaa !17
  %158 = load i32, ptr %12, align 4, !tbaa !3
  %159 = sext i32 %158 to i64
  %160 = getelementptr inbounds i32, ptr %157, i64 %159
  store i32 %156, ptr %160, align 4, !tbaa !3
  br label %161

161:                                              ; preds = %145
  %162 = load i32, ptr %12, align 4, !tbaa !3
  %163 = add nsw i32 %162, 1
  store i32 %163, ptr %12, align 4, !tbaa !3
  br label %141, !llvm.loop !73

164:                                              ; preds = %141
  br label %165

165:                                              ; preds = %164, %139
  br label %166

166:                                              ; preds = %165, %107
  br label %167

167:                                              ; preds = %166, %75
  call void @llvm.lifetime.end.p0(i64 4, ptr %14) #8
  call void @llvm.lifetime.end.p0(i64 4, ptr %13) #8
  call void @llvm.lifetime.end.p0(i64 4, ptr %12) #8
  call void @llvm.lifetime.end.p0(i64 8, ptr %11) #8
  call void @llvm.lifetime.end.p0(i64 8, ptr %10) #8
  call void @llvm.lifetime.end.p0(i64 8, ptr %9) #8
  ret void
}