; Function Attrs: nofree norecurse nosync nounwind memory(readwrite, inaccessiblemem: none) uwtable
define void @Sim_UtilSimulateNodeOne(ptr noundef readonly captures(none) %0, ptr noundef readonly captures(none) %1, i32 noundef %2, i32 noundef %3) local_unnamed_addr #8 {
  %5 = getelementptr inbounds nuw i8, ptr %0, i64 16
  %6 = load i32, ptr %5, align 8, !tbaa !33
  %7 = getelementptr i8, ptr %1, i64 8
  %.val = load ptr, ptr %7, align 8, !tbaa !9
  %8 = sext i32 %6 to i64
  %9 = getelementptr inbounds ptr, ptr %.val, i64 %8
  %10 = load ptr, ptr %9, align 8, !tbaa !10
  %11 = getelementptr i8, ptr %0, i64 32
  %.val62 = load ptr, ptr %11, align 8, !tbaa !57
  %.val62.val = load i32, ptr %.val62, align 4, !tbaa !14
  %12 = sext i32 %.val62.val to i64
  %13 = getelementptr inbounds ptr, ptr %.val, i64 %12
  %14 = load ptr, ptr %13, align 8, !tbaa !10
  %15 = getelementptr i8, ptr %.val62, i64 4
  %.val63.val = load i32, ptr %15, align 4, !tbaa !14
  %16 = sext i32 %.val63.val to i64
  %17 = getelementptr inbounds ptr, ptr %.val, i64 %16
  %18 = load ptr, ptr %17, align 8, !tbaa !10
  %19 = sext i32 %3 to i64
  %20 = getelementptr inbounds i32, ptr %10, i64 %19
  %21 = getelementptr inbounds i32, ptr %14, i64 %19
  %22 = getelementptr inbounds i32, ptr %18, i64 %19
  %23 = getelementptr i8, ptr %0, i64 20
  %.val64 = load i32, ptr %23, align 4
  %24 = lshr i32 %.val64, 10
  %25 = and i32 %24, 1
  %26 = icmp ne i32 %25, 0
  %27 = and i32 %.val64, 2048
  %28 = icmp ne i32 %27, 0
  %or.cond = and i1 %28, %26
  br i1 %or.cond, label %.preheader, label %36

.preheader:                                       ; preds = %4
  %29 = icmp sgt i32 %2, 0
  br i1 %29, label %.lr.ph78.preheader, label %.loopexit

.lr.ph78.preheader:                               ; preds = %.preheader
  %wide.trip.count96 = zext nneg i32 %2 to i64
  br label %.lr.ph78

.lr.ph78:                                         ; preds = %.lr.ph78.preheader, %.lr.ph78
  %indvars.iv93 = phi i64 [ 0, %.lr.ph78.preheader ], [ %indvars.iv.next94, %.lr.ph78 ]
  %30 = getelementptr inbounds nuw i32, ptr %21, i64 %indvars.iv93
  %31 = load i32, ptr %30, align 4, !tbaa !14
  %32 = getelementptr inbounds nuw i32, ptr %22, i64 %indvars.iv93
  %33 = load i32, ptr %32, align 4, !tbaa !14
  %.demorgan = or i32 %33, %31
  %34 = xor i32 %.demorgan, -1
  %35 = getelementptr inbounds nuw i32, ptr %20, i64 %indvars.iv93
  store i32 %34, ptr %35, align 4, !tbaa !14
  %indvars.iv.next94 = add nuw nsw i64 %indvars.iv93, 1
  %exitcond97.not = icmp eq i64 %indvars.iv.next94, %wide.trip.count96
  br i1 %exitcond97.not, label %.loopexit, label %.lr.ph78, !llvm.loop !64

36:                                               ; preds = %4
  %37 = icmp eq i32 %25, 0
  %or.cond3 = or i1 %28, %37
  br i1 %or.cond3, label %46, label %.preheader70

.preheader70:                                     ; preds = %36
  %38 = icmp sgt i32 %2, 0
  br i1 %38, label %.lr.ph.preheader, label %.loopexit

.lr.ph.preheader:                                 ; preds = %.preheader70
  %wide.trip.count = zext nneg i32 %2 to i64
  br label %.lr.ph

.lr.ph:                                           ; preds = %.lr.ph.preheader, %.lr.ph
  %indvars.iv = phi i64 [ 0, %.lr.ph.preheader ], [ %indvars.iv.next, %.lr.ph ]
  %39 = getelementptr inbounds nuw i32, ptr %21, i64 %indvars.iv
  %40 = load i32, ptr %39, align 4, !tbaa !14
  %41 = xor i32 %40, -1
  %42 = getelementptr inbounds nuw i32, ptr %22, i64 %indvars.iv
  %43 = load i32, ptr %42, align 4, !tbaa !14
  %44 = and i32 %43, %41
  %45 = getelementptr inbounds nuw i32, ptr %20, i64 %indvars.iv
  store i32 %44, ptr %45, align 4, !tbaa !14
  %indvars.iv.next = add nuw nsw i64 %indvars.iv, 1
  %exitcond.not = icmp eq i64 %indvars.iv.next, %wide.trip.count
  br i1 %exitcond.not, label %.loopexit, label %.lr.ph, !llvm.loop !65

46:                                               ; preds = %36
  %or.cond5 = and i1 %28, %37
  %47 = icmp sgt i32 %2, 0
  br i1 %or.cond5, label %.preheader66, label %.preheader68

.preheader68:                                     ; preds = %46
  br i1 %47, label %.lr.ph74.preheader, label %.loopexit

.lr.ph74.preheader:                               ; preds = %.preheader68
  %wide.trip.count86 = zext nneg i32 %2 to i64
  br label %.lr.ph74

.preheader66:                                     ; preds = %46
  br i1 %47, label %.lr.ph76.preheader, label %.loopexit

.lr.ph76.preheader:                               ; preds = %.preheader66
  %wide.trip.count91 = zext nneg i32 %2 to i64
  br label %.lr.ph76

.lr.ph76:                                         ; preds = %.lr.ph76.preheader, %.lr.ph76
  %indvars.iv88 = phi i64 [ 0, %.lr.ph76.preheader ], [ %indvars.iv.next89, %.lr.ph76 ]
  %48 = getelementptr inbounds nuw i32, ptr %21, i64 %indvars.iv88
  %49 = load i32, ptr %48, align 4, !tbaa !14
  %50 = getelementptr inbounds nuw i32, ptr %22, i64 %indvars.iv88
  %51 = load i32, ptr %50, align 4, !tbaa !14
  %52 = xor i32 %51, -1
  %53 = and i32 %49, %52
  %54 = getelementptr inbounds nuw i32, ptr %20, i64 %indvars.iv88
  store i32 %53, ptr %54, align 4, !tbaa !14
  %indvars.iv.next89 = add nuw nsw i64 %indvars.iv88, 1
  %exitcond92.not = icmp eq i64 %indvars.iv.next89, %wide.trip.count91
  br i1 %exitcond92.not, label %.loopexit, label %.lr.ph76, !llvm.loop !66

.lr.ph74:                                         ; preds = %.lr.ph74.preheader, %.lr.ph74
  %indvars.iv83 = phi i64 [ 0, %.lr.ph74.preheader ], [ %indvars.iv.next84, %.lr.ph74 ]
  %55 = getelementptr inbounds nuw i32, ptr %21, i64 %indvars.iv83
  %56 = load i32, ptr %55, align 4, !tbaa !14
  %57 = getelementptr inbounds nuw i32, ptr %22, i64 %indvars.iv83
  %58 = load i32, ptr %57, align 4, !tbaa !14
  %59 = and i32 %58, %56
  %60 = getelementptr inbounds nuw i32, ptr %20, i64 %indvars.iv83
  store i32 %59, ptr %60, align 4, !tbaa !14
  %indvars.iv.next84 = add nuw nsw i64 %indvars.iv83, 1
  %exitcond87.not = icmp eq i64 %indvars.iv.next84, %wide.trip.count86
  br i1 %exitcond87.not, label %.loopexit, label %.lr.ph74, !llvm.loop !67

.loopexit:                                        ; preds = %.lr.ph, %.lr.ph74, %.lr.ph76, %.lr.ph78, %.preheader70, %.preheader68, %.preheader66, %.preheader
  ret void
}